target datalayout = "e-m:e-p270:32:32-p271:32:32-p272:64:64-i64:64-i128:128-f80:128-n8:16:32:64-S128"
target triple = "x86_64-pc-linux-gnu"

%struct.SDL_GPUBootstrap = type { ptr, ptr, ptr }

@.str.4 = private unnamed_addr constant [26 x i8] c"Parameter '%s' is invalid\00", align 1
@.str.5 = private unnamed_addr constant [6 x i8] c"index\00", align 1
@backends = internal global [2 x ptr] [ptr @VulkanDriver, ptr null], align 16

; Function Attrs: nounwind uwtable
define hidden i32 @SDL_GetNumGPUDrivers_REAL() #0 {
  ret i32 1
}

; Function Attrs: nounwind uwtable
define hidden ptr @SDL_GetGPUDriver_REAL(i32 noundef %0) #0 {
  %2 = alloca ptr, align 8
  %3 = alloca i32, align 4
  store i32 %0, ptr %3, align 4
  %4 = load i32, ptr %3, align 4
  %5 = icmp slt i32 %4, 0
  br i1 %5, label %10, label %6

6:                                                ; preds = %1
  %7 = load i32, ptr %3, align 4
  %8 = call i32 @SDL_GetNumGPUDrivers_REAL()
  %9 = icmp sge i32 %7, %8
  br i1 %9, label %10, label %12

10:                                               ; preds = %6, %1
  %11 = call zeroext i1 (ptr, ...) @SDL_SetError_REAL(ptr noundef @.str.4, ptr noundef @.str.5)
  store ptr null, ptr %2, align 8
  br label %19

12:                                               ; preds = %6
  %13 = load i32, ptr %3, align 4
  %14 = sext i32 %13 to i64
  %15 = getelementptr inbounds [2 x ptr], ptr @backends, i64 0, i64 %14
  %16 = load ptr, ptr %15, align 8
  %17 = getelementptr inbounds nuw %struct.SDL_GPUBootstrap, ptr %16, i32 0, i32 0
  %18 = load ptr, ptr %17, align 8
  store ptr %18, ptr %2, align 8
  br label %19

19:                                               ; preds = %12, %10
  %20 = load ptr, ptr %2, align 8
  ret ptr %20
}