; Function Attrs: nounwind uwtable
define hidden ptr @SDL_GetGPUDriver_REAL(i32 noundef %0) local_unnamed_addr #0 {
  %.not = icmp eq i32 %0, 0
  br i1 %.not, label %4, label %2

2:                                                ; preds = %1
  %3 = tail call zeroext i1 (ptr, ...) @SDL_SetError_REAL(ptr noundef nonnull @.str.4, ptr noundef nonnull @.str.5) #7
  br label %6

4:                                                ; preds = %1
  %5 = load ptr, ptr @VulkanDriver, align 8
  br label %6

6:                                                ; preds = %4, %2
  %.0 = phi ptr [ null, %2 ], [ %5, %4 ]
  ret ptr %.0
}